target datalayout = "e-m:e-p270:32:32-p271:32:32-p272:64:64-i64:64-i128:128-f80:128-n8:16:32:64-S128"
target triple = "x86_64-pc-linux-gnu"

%struct._object = type { %union.anon, ptr }
%union.anon = type { i64 }

@_Py_NoneStruct = external global %struct._object, align 8
@.str.56 = private unnamed_addr constant [34 x i8] c"iOz#:err_setfromerrnowithfilename\00", align 1

; Function Attrs: nounwind uwtable
define internal ptr @_testcapi_err_setfromerrnowithfilename_impl(ptr noundef %0, i32 noundef %1, ptr noundef %2, ptr noundef %3, i64 noundef %4) #0 {
  %6 = alloca ptr, align 8
  %7 = alloca i32, align 4
  %8 = alloca ptr, align 8
  %9 = alloca ptr, align 8
  %10 = alloca i64, align 8
  store ptr %0, ptr %6, align 8, !tbaa !3
  store i32 %1, ptr %7, align 4, !tbaa !21
  store ptr %2, ptr %8, align 8, !tbaa !3
  store ptr %3, ptr %9, align 8, !tbaa !22
  store i64 %4, ptr %10, align 8, !tbaa !25
  br label %11

11:                                               ; preds = %5
  %12 = load ptr, ptr %8, align 8, !tbaa !3
  %13 = icmp eq ptr %12, @_Py_NoneStruct
  br i1 %13, label %14, label %15

14:                                               ; preds = %11
  store ptr null, ptr %8, align 8, !tbaa !3
  br label %15

15:                                               ; preds = %14, %11
  br label %16

16:                                               ; preds = %15
  %17 = load i32, ptr %7, align 4, !tbaa !21
  %18 = call ptr @__errno_location() #14
  store i32 %17, ptr %18, align 4, !tbaa !21
  %19 = load ptr, ptr %8, align 8, !tbaa !3
  %20 = load ptr, ptr %9, align 8, !tbaa !22
  %21 = call ptr @PyErr_SetFromErrnoWithFilename(ptr noundef %19, ptr noundef %20)
  ret ptr null
}

; Function Attrs: nounwind uwtable
define internal ptr @_testcapi_err_setfromerrnowithfilename(ptr noundef %0, ptr noundef %1, i64 noundef %2) #0 {
  %4 = alloca ptr, align 8
  %5 = alloca ptr, align 8
  %6 = alloca i64, align 8
  %7 = alloca ptr, align 8
  %8 = alloca i32, align 4
  %9 = alloca ptr, align 8
  %10 = alloca ptr, align 8
  %11 = alloca i64, align 8
  store ptr %0, ptr %4, align 8, !tbaa !3
  store ptr %1, ptr %5, align 8, !tbaa !23
  store i64 %2, ptr %6, align 8, !tbaa !25
  call void @llvm.lifetime.start.p0(i64 8, ptr %7) #10
  store ptr null, ptr %7, align 8, !tbaa !3
  call void @llvm.lifetime.start.p0(i64 4, ptr %8) #10
  call void @llvm.lifetime.start.p0(i64 8, ptr %9) #10
  call void @llvm.lifetime.start.p0(i64 8, ptr %10) #10
  call void @llvm.lifetime.start.p0(i64 8, ptr %11) #10
  %12 = load ptr, ptr %5, align 8, !tbaa !23
  %13 = load i64, ptr %6, align 8, !tbaa !25
  %14 = call i32 (ptr, i64, ptr, ...) @_PyArg_ParseStack(ptr noundef %12, i64 noundef %13, ptr noundef @.str.56, ptr noundef %8, ptr noundef %9, ptr noundef %10, ptr noundef %11)
  %15 = icmp ne i32 %14, 0
  br i1 %15, label %17, label %16

16:                                               ; preds = %3
  br label %24

17:                                               ; preds = %3
  %18 = load ptr, ptr %4, align 8, !tbaa !3
  %19 = load i32, ptr %8, align 4, !tbaa !21
  %20 = load ptr, ptr %9, align 8, !tbaa !3
  %21 = load ptr, ptr %10, align 8, !tbaa !22
  %22 = load i64, ptr %11, align 8, !tbaa !25
  %23 = call ptr @_testcapi_err_setfromerrnowithfilename_impl(ptr noundef %18, i32 noundef %19, ptr noundef %20, ptr noundef %21, i64 noundef %22)
  store ptr %23, ptr %7, align 8, !tbaa !3
  br label %24

24:                                               ; preds = %17, %16
  %25 = load ptr, ptr %7, align 8, !tbaa !3
  call void @llvm.lifetime.end.p0(i64 8, ptr %11) #10
  call void @llvm.lifetime.end.p0(i64 8, ptr %10) #10
  call void @llvm.lifetime.end.p0(i64 8, ptr %9) #10
  call void @llvm.lifetime.end.p0(i64 4, ptr %8) #10
  call void @llvm.lifetime.end.p0(i64 8, ptr %7) #10
  ret ptr %25
}