; Function Attrs: nounwind uwtable
define internal noalias noundef ptr @_testcapi_err_setfromerrnowithfilename(ptr readnone captures(none) %0, ptr noundef %1, i64 noundef %2) #0 {
  %4 = alloca i32, align 4
  %5 = alloca ptr, align 8
  %6 = alloca ptr, align 8
  %7 = alloca i64, align 8
  call void @llvm.lifetime.start.p0(i64 4, ptr nonnull %4) #8
  call void @llvm.lifetime.start.p0(i64 8, ptr nonnull %5) #8
  call void @llvm.lifetime.start.p0(i64 8, ptr nonnull %6) #8
  call void @llvm.lifetime.start.p0(i64 8, ptr nonnull %7) #8
  %8 = call i32 (ptr, i64, ptr, ...) @_PyArg_ParseStack(ptr noundef %1, i64 noundef %2, ptr noundef nonnull @.str.56, ptr noundef nonnull %4, ptr noundef nonnull %5, ptr noundef nonnull %6, ptr noundef nonnull %7) #8
  %.not = icmp eq i32 %8, 0
  br i1 %.not, label %16, label %9

9:                                                ; preds = %3
  %10 = load i32, ptr %4, align 4, !tbaa !24
  %11 = load ptr, ptr %5, align 8, !tbaa !3
  %12 = load ptr, ptr %6, align 8, !tbaa !21
  %13 = icmp eq ptr %11, @_Py_NoneStruct
  %spec.store.select.i = select i1 %13, ptr null, ptr %11
  %14 = tail call ptr @__errno_location() #11
  store i32 %10, ptr %14, align 4, !tbaa !24
  %15 = call ptr @PyErr_SetFromErrnoWithFilename(ptr noundef %spec.store.select.i, ptr noundef %12) #8
  br label %16

16:                                               ; preds = %3, %9
  call void @llvm.lifetime.end.p0(i64 8, ptr nonnull %7) #8
  call void @llvm.lifetime.end.p0(i64 8, ptr nonnull %6) #8
  call void @llvm.lifetime.end.p0(i64 8, ptr nonnull %5) #8
  call void @llvm.lifetime.end.p0(i64 4, ptr nonnull %4) #8
  ret ptr null
}